; Function Attrs: mustprogress uwtable
define internal fastcc void @_ZN8facebook5velox6common11compression12_GLOBAL__N_123MalformedInputExceptionC2El(ptr noundef nonnull align 8 dereferenceable(16) %this, i64 noundef %off) unnamed_addr #0 align 2 personality ptr @__gxx_personality_v0 {
entry:
  %ref.tmp.i.i = alloca ptr, align 8
  %val.addr.i = alloca i64, align 8
  %ref.tmp = alloca %"class.std::__cxx11::basic_string", align 8
  %ref.tmp2 = alloca %"class.std::__cxx11::basic_string", align 8
  call void @llvm.lifetime.start.p0(i64 8, ptr nonnull %val.addr.i)
  store i64 %off, ptr %val.addr.i, align 8, !noalias !15
  call void @llvm.lifetime.start.p0(i64 8, ptr nonnull %ref.tmp.i.i), !noalias !15
  call void @_ZNSt7__cxx1112basic_stringIcSt11char_traitsIcESaIcEEC1Ev(ptr noundef nonnull align 8 dereferenceable(32) %ref.tmp2) #9
  store ptr %ref.tmp2, ptr %ref.tmp.i.i, align 8, !noalias !18
  invoke void @_ZN5folly11toAppendFitIJlPNSt7__cxx1112basic_stringIcSt11char_traitsIcESaIcEEEEEENSt9enable_ifIXsr12IsSomeStringINSt14remove_pointerINS_6detail11LastElementIJDpRKT_EE4typeEE4typeEEE5valueEvE4typeESF_(ptr noundef nonnull align 8 dereferenceable(8) %val.addr.i, ptr noundef nonnull align 8 dereferenceable(8) %ref.tmp.i.i)
          to label %_ZN8facebook5velox6common11compressionL8toStringB5cxx11El.exit unwind label %lpad.i.i

common.resume:                                    ; preds = %lpad, %lpad3, %lpad.i.i
  %common.resume.op = phi { ptr, i32 } [ %0, %lpad.i.i ], [ %2, %lpad3 ], [ %1, %lpad ]
  call void @_ZNSt7__cxx1112basic_stringIcSt11char_traitsIcESaIcEED1Ev(ptr noundef nonnull align 8 dereferenceable(32) %ref.tmp2) #9
  resume { ptr, i32 } %common.resume.op

lpad.i.i:                                         ; preds = %entry
  %0 = landingpad { ptr, i32 }
          cleanup
  br label %common.resume

_ZN8facebook5velox6common11compressionL8toStringB5cxx11El.exit: ; preds = %entry
  call void @llvm.lifetime.end.p0(i64 8, ptr nonnull %ref.tmp.i.i), !noalias !15
  call void @llvm.lifetime.end.p0(i64 8, ptr nonnull %val.addr.i)
  %call.i2 = invoke noundef nonnull align 8 dereferenceable(32) ptr @_ZNSt7__cxx1112basic_stringIcSt11char_traitsIcESaIcEE6insertEmPKc(ptr noundef nonnull align 8 dereferenceable(32) %ref.tmp2, i64 noundef 0, ptr noundef nonnull @.str.1)
          to label %invoke.cont unwind label %lpad

invoke.cont:                                      ; preds = %_ZN8facebook5velox6common11compressionL8toStringB5cxx11El.exit
  call void @_ZNSt7__cxx1112basic_stringIcSt11char_traitsIcESaIcEEC1EOS4_(ptr noundef nonnull align 8 dereferenceable(32) %ref.tmp, ptr noundef nonnull align 8 dereferenceable(32) %call.i2) #9
  invoke void @_ZNSt13runtime_errorC2ERKNSt7__cxx1112basic_stringIcSt11char_traitsIcESaIcEEE(ptr noundef nonnull align 8 dereferenceable(16) %this, ptr noundef nonnull align 8 dereferenceable(32) %ref.tmp)
          to label %invoke.cont4 unwind label %lpad3

invoke.cont4:                                     ; preds = %invoke.cont
  store ptr getelementptr inbounds ({ [5 x ptr] }, ptr @_ZTVN8facebook5velox4dwio6common10ParseErrorE, i64 0, i32 0, i64 2), ptr %this, align 8
  call void @_ZNSt7__cxx1112basic_stringIcSt11char_traitsIcESaIcEED1Ev(ptr noundef nonnull align 8 dereferenceable(32) %ref.tmp) #9
  call void @_ZNSt7__cxx1112basic_stringIcSt11char_traitsIcESaIcEED1Ev(ptr noundef nonnull align 8 dereferenceable(32) %ref.tmp2) #9
  store ptr getelementptr inbounds ({ [5 x ptr] }, ptr @_ZTVN8facebook5velox6common11compression12_GLOBAL__N_123MalformedInputExceptionE, i64 0, i32 0, i64 2), ptr %this, align 8
  ret void

lpad:                                             ; preds = %_ZN8facebook5velox6common11compressionL8toStringB5cxx11El.exit
  %1 = landingpad { ptr, i32 }
          cleanup
  br label %common.resume

lpad3:                                            ; preds = %invoke.cont
  %2 = landingpad { ptr, i32 }
          cleanup
  call void @_ZNSt7__cxx1112basic_stringIcSt11char_traitsIcESaIcEED1Ev(ptr noundef nonnull align 8 dereferenceable(32) %ref.tmp) #9
  br label %common.resume
}